target datalayout = "e-m:e-p270:32:32-p271:32:32-p272:64:64-i64:64-i128:128-f80:128-n8:16:32:64-S128"
target triple = "x86_64-pc-linux-gnu"

%struct._zend_executor_globals = type { %struct._zval_struct, %struct._zval_struct, [32 x ptr], ptr, ptr, %struct._zend_array, %struct._zend_array, ptr, i32, i32, ptr, ptr, ptr, ptr, ptr, ptr, i64, ptr, ptr, i32, i32, i64, i32, i32, i32, i8, i8, %struct.zend_atomic_bool_s, %struct.zend_atomic_bool_s, ptr, i64, ptr, ptr, %struct._zend_array, %struct._zend_array, i32, i8, %struct._zval_struct, %struct._zval_struct, %struct._zend_stack, %struct._zend_stack, %struct._zend_stack, ptr, i32, i32, i64, ptr, ptr, ptr, %struct._zend_objects_store, ptr, ptr, ptr, [3 x %struct._zend_op], ptr, i8, i8, i64, i32, i32, ptr, [16 x %struct._HashTableIterator], ptr, %union._zend_function, %struct._zend_op, %struct._zend_array, i64, %struct.zend_get_gc_buffer, ptr, ptr, ptr, i64, i8, i32, ptr, ptr, i64, %struct._zend_call_stack, i64, i64, [6 x ptr] }
%struct.zend_atomic_bool_s = type { i8 }
%struct._zval_struct = type { %union._zend_value, %union.anon, %union.anon.2 }
%union._zend_value = type { i64 }
%union.anon = type { i32 }
%union.anon.2 = type { i32 }
%struct._zend_stack = type { i32, i32, i32, ptr }
%struct._zend_objects_store = type { ptr, i32, i32, i32 }
%struct._HashTableIterator = type { ptr, i32, i32 }
%union._zend_function = type { %struct._zend_op_array }
%struct._zend_op_array = type { i8, [3 x i8], i32, ptr, ptr, ptr, i32, i32, ptr, ptr, ptr, ptr, i32, i32, i32, i32, ptr, ptr, ptr, ptr, ptr, i32, i32, ptr, ptr, ptr, i32, i32, i32, i32, ptr, ptr, [6 x ptr] }
%struct._zend_op = type { ptr, %union._znode_op, %union._znode_op, %union._znode_op, i32, i32, i8, i8, i8, i8 }
%union._znode_op = type { i32 }
%struct._zend_array = type { %struct._zend_refcounted_h, %union.anon.4, i32, %union.anon.6, i32, i32, i32, i32, i64, ptr }
%struct._zend_refcounted_h = type { i32, %union.anon.3 }
%union.anon.3 = type { i32 }
%union.anon.4 = type { i32 }
%union.anon.6 = type { ptr }
%struct.zend_get_gc_buffer = type { ptr, ptr, ptr }
%struct._zend_call_stack = type { ptr, i64 }
%struct._zend_execute_data = type { ptr, ptr, ptr, ptr, %struct._zval_struct, ptr, ptr, ptr, ptr }
%struct._zend_object = type { %struct._zend_refcounted_h, i32, ptr, ptr, ptr, [1 x %struct._zval_struct] }
%struct._spl_recursive_it_object = type { ptr, i32, i32, i32, i32, i8, ptr, ptr, ptr, ptr, ptr, ptr, ptr, ptr, [6 x ptr], [1 x ptr], %struct._zend_object }

@executor_globals = external global %struct._zend_executor_globals, align 8
@.str.6 = private unnamed_addr constant [3 x i8] c"lS\00", align 1
@.str.7 = private unnamed_addr constant [51 x i8] c"must be a RecursiveTreeIterator::PREFIX_* constant\00", align 1

; Function Attrs: nounwind uwtable
define internal ptr @spl_recursive_it_from_obj(ptr noundef %0) #0 {
  %2 = alloca ptr, align 8
  store ptr %0, ptr %2, align 8
  %3 = load ptr, ptr %2, align 8
  %4 = getelementptr inbounds i8, ptr %3, i64 -152
  ret ptr %4
}

; Function Attrs: nounwind uwtable
define hidden void @zim_RecursiveTreeIterator_setPrefixPart(ptr noundef %0, ptr noundef %1) #0 {
  %3 = alloca ptr, align 8
  %4 = alloca ptr, align 8
  %5 = alloca i32, align 4
  %6 = alloca i32, align 4
  %7 = alloca i32, align 4
  %8 = alloca ptr, align 8
  %9 = alloca ptr, align 8
  %10 = alloca ptr, align 8
  %11 = alloca ptr, align 8
  %12 = alloca i64, align 8
  %13 = alloca ptr, align 8
  %14 = alloca ptr, align 8
  store ptr %0, ptr %10, align 8
  store ptr %1, ptr %11, align 8
  %15 = load ptr, ptr %10, align 8
  %16 = getelementptr inbounds %struct._zend_execute_data, ptr %15, i32 0, i32 4
  %17 = getelementptr inbounds %struct._zval_struct, ptr %16, i32 0, i32 0
  %18 = load ptr, ptr %17, align 8
  %19 = call ptr @spl_recursive_it_from_obj(ptr noundef %18)
  store ptr %19, ptr %14, align 8
  %20 = load ptr, ptr %10, align 8
  %21 = getelementptr inbounds %struct._zend_execute_data, ptr %20, i32 0, i32 4
  %22 = getelementptr inbounds %struct._zval_struct, ptr %21, i32 0, i32 2
  %23 = load i32, ptr %22, align 4
  %24 = call i32 (i32, ptr, ...) @zend_parse_parameters(i32 noundef %23, ptr noundef @.str.6, ptr noundef %12, ptr noundef %13)
  %25 = icmp eq i32 %24, -1
  br i1 %25, label %26, label %31

26:                                               ; preds = %2
  br label %27

27:                                               ; preds = %26
  %28 = load ptr, ptr getelementptr inbounds (%struct._zend_executor_globals, ptr @executor_globals, i32 0, i32 50), align 8
  %29 = icmp ne ptr %28, null
  call void @llvm.assume(i1 %29)
  br label %98

30:                                               ; No predecessors!
  br label %31

31:                                               ; preds = %30, %2
  %32 = load i64, ptr %12, align 8
  %33 = icmp sgt i64 0, %32
  br i1 %33, label %37, label %34

34:                                               ; preds = %31
  %35 = load i64, ptr %12, align 8
  %36 = icmp sgt i64 %35, 5
  br i1 %36, label %37, label %42

37:                                               ; preds = %34, %31
  call void (i32, ptr, ...) @zend_argument_value_error(i32 noundef 1, ptr noundef @.str.7)
  br label %38

38:                                               ; preds = %37
  %39 = load ptr, ptr getelementptr inbounds (%struct._zend_executor_globals, ptr @executor_globals, i32 0, i32 50), align 8
  %40 = icmp ne ptr %39, null
  call void @llvm.assume(i1 %40)
  br label %98

41:                                               ; No predecessors!
  br label %42

42:                                               ; preds = %41, %34
  %43 = load ptr, ptr %14, align 8
  %44 = getelementptr inbounds %struct._spl_recursive_it_object, ptr %43, i32 0, i32 14
  %45 = load i64, ptr %12, align 8
  %46 = getelementptr inbounds [6 x ptr], ptr %44, i64 0, i64 %45
  %47 = load ptr, ptr %46, align 8
  store ptr %47, ptr %9, align 8
  %48 = load ptr, ptr %9, align 8
  %49 = getelementptr inbounds %struct._zend_refcounted_h, ptr %48, i32 0, i32 1
  %50 = load i32, ptr %49, align 4
  store i32 %50, ptr %5, align 4
  %51 = load i32, ptr %5, align 4
  %52 = and i32 %51, 1008
  %53 = and i32 %52, 64
  %54 = icmp ne i32 %53, 0
  br i1 %54, label %78, label %55

55:                                               ; preds = %42
  %56 = load ptr, ptr %9, align 8
  store ptr %56, ptr %3, align 8
  %57 = load ptr, ptr %3, align 8
  %58 = load i32, ptr %57, align 4
  %59 = icmp ugt i32 %58, 0
  call void @llvm.assume(i1 %59)
  %60 = load ptr, ptr %3, align 8
  %61 = load i32, ptr %60, align 4
  %62 = add i32 %61, -1
  store i32 %62, ptr %60, align 4
  %63 = icmp eq i32 %62, 0
  br i1 %63, label %64, label %77

64:                                               ; preds = %55
  %65 = load ptr, ptr %9, align 8
  %66 = getelementptr inbounds %struct._zend_refcounted_h, ptr %65, i32 0, i32 1
  %67 = load i32, ptr %66, align 4
  store i32 %67, ptr %6, align 4
  %68 = load i32, ptr %6, align 4
  %69 = and i32 %68, 1008
  %70 = and i32 %69, 128
  %71 = icmp ne i32 %70, 0
  br i1 %71, label %72, label %74

72:                                               ; preds = %64
  %73 = load ptr, ptr %9, align 8
  call void @free(ptr noundef %73) #10
  br label %76

74:                                               ; preds = %64
  %75 = load ptr, ptr %9, align 8
  call void @_efree(ptr noundef %75) #10
  br label %76

76:                                               ; preds = %74, %72
  br label %77

77:                                               ; preds = %76, %55
  br label %78

78:                                               ; preds = %77, %42
  %79 = load ptr, ptr %13, align 8
  store ptr %79, ptr %8, align 8
  %80 = load ptr, ptr %8, align 8
  %81 = getelementptr inbounds %struct._zend_refcounted_h, ptr %80, i32 0, i32 1
  %82 = load i32, ptr %81, align 4
  store i32 %82, ptr %7, align 4
  %83 = load i32, ptr %7, align 4
  %84 = and i32 %83, 1008
  %85 = and i32 %84, 64
  %86 = icmp ne i32 %85, 0
  br i1 %86, label %92, label %87

87:                                               ; preds = %78
  %88 = load ptr, ptr %8, align 8
  store ptr %88, ptr %4, align 8
  %89 = load ptr, ptr %4, align 8
  %90 = load i32, ptr %89, align 4
  %91 = add i32 %90, 1
  store i32 %91, ptr %89, align 4
  br label %92

92:                                               ; preds = %87, %78
  %93 = load ptr, ptr %8, align 8
  %94 = load ptr, ptr %14, align 8
  %95 = getelementptr inbounds %struct._spl_recursive_it_object, ptr %94, i32 0, i32 14
  %96 = load i64, ptr %12, align 8
  %97 = getelementptr inbounds [6 x ptr], ptr %95, i64 0, i64 %96
  store ptr %93, ptr %97, align 8
  br label %98

98:                                               ; preds = %92, %38, %27
  ret void
}