; Function Attrs: nounwind uwtable
define hidden void @zim_RecursiveTreeIterator_setPrefixPart(ptr nocapture noundef readonly %0, ptr nocapture readnone %1) #0 {
  %3 = alloca i64, align 8
  %4 = alloca ptr, align 8
  %5 = getelementptr inbounds i8, ptr %0, i64 32
  %6 = load ptr, ptr %5, align 8
  %7 = getelementptr inbounds i8, ptr %0, i64 44
  %8 = load i32, ptr %7, align 4
  %9 = call i32 (i32, ptr, ...) @zend_parse_parameters(i32 noundef %8, ptr noundef nonnull @.str.6, ptr noundef nonnull %3, ptr noundef nonnull %4) #10
  %10 = icmp eq i32 %9, -1
  br i1 %10, label %11, label %14

11:                                               ; preds = %2
  %12 = load ptr, ptr getelementptr inbounds (%struct._zend_executor_globals, ptr @executor_globals, i64 0, i32 50), align 8
  %13 = icmp ne ptr %12, null
  call void @llvm.assume(i1 %13)
  br label %46

14:                                               ; preds = %2
  %15 = load i64, ptr %3, align 8
  %or.cond = icmp ugt i64 %15, 5
  br i1 %or.cond, label %16, label %19

16:                                               ; preds = %14
  call void (i32, ptr, ...) @zend_argument_value_error(i32 noundef 1, ptr noundef nonnull @.str.7) #10
  %17 = load ptr, ptr getelementptr inbounds (%struct._zend_executor_globals, ptr @executor_globals, i64 0, i32 50), align 8
  %18 = icmp ne ptr %17, null
  call void @llvm.assume(i1 %18)
  br label %46

19:                                               ; preds = %14
  %20 = getelementptr inbounds i8, ptr %6, i64 -56
  %21 = getelementptr inbounds [6 x ptr], ptr %20, i64 0, i64 %15
  %22 = load ptr, ptr %21, align 8
  %23 = getelementptr inbounds i8, ptr %22, i64 4
  %24 = load i32, ptr %23, align 4
  %25 = and i32 %24, 64
  %.not = icmp eq i32 %25, 0
  br i1 %.not, label %26, label %35

26:                                               ; preds = %19
  %27 = load i32, ptr %22, align 4
  %28 = icmp ne i32 %27, 0
  call void @llvm.assume(i1 %28)
  %29 = add i32 %27, -1
  store i32 %29, ptr %22, align 4
  %30 = icmp eq i32 %29, 0
  br i1 %30, label %31, label %35

31:                                               ; preds = %26
  %32 = and i32 %24, 128
  %.not18 = icmp eq i32 %32, 0
  br i1 %.not18, label %34, label %33

33:                                               ; preds = %31
  call void @free(ptr noundef nonnull %22) #10
  br label %35

34:                                               ; preds = %31
  call void @_efree(ptr noundef nonnull %22) #10
  br label %35

35:                                               ; preds = %26, %34, %33, %19
  %36 = load ptr, ptr %4, align 8
  %37 = getelementptr inbounds i8, ptr %36, i64 4
  %38 = load i32, ptr %37, align 4
  %39 = and i32 %38, 64
  %.not19 = icmp eq i32 %39, 0
  br i1 %.not19, label %40, label %43

40:                                               ; preds = %35
  %41 = load i32, ptr %36, align 4
  %42 = add i32 %41, 1
  store i32 %42, ptr %36, align 4
  br label %43

43:                                               ; preds = %40, %35
  %44 = load i64, ptr %3, align 8
  %45 = getelementptr inbounds [6 x ptr], ptr %20, i64 0, i64 %44
  store ptr %36, ptr %45, align 8
  br label %46

46:                                               ; preds = %43, %16, %11
  ret void
}